; Function Attrs: nounwind uwtable
define ptr @Dch_DeriveTotalAig(ptr noundef readonly captures(none) %0) local_unnamed_addr #0 {
  %2 = getelementptr i8, ptr %0, i64 8
  %.val62 = load ptr, ptr %2, align 8, !tbaa !12
  %3 = load ptr, ptr %.val62, align 8, !tbaa !14
  %4 = getelementptr i8, ptr %0, i64 4
  %.val6981 = load i32, ptr %4, align 4, !tbaa !15
  %5 = icmp sgt i32 %.val6981, 0
  br i1 %5, label %.lr.ph, label %.critedge

.lr.ph:                                           ; preds = %1, %.lr.ph
  %indvars.iv = phi i64 [ %indvars.iv.next, %.lr.ph ], [ 0, %1 ]
  %.083 = phi i32 [ %11, %.lr.ph ], [ 0, %1 ]
  %.val63 = load ptr, ptr %2, align 8, !tbaa !12
  %6 = getelementptr inbounds nuw ptr, ptr %.val63, i64 %indvars.iv
  %7 = load ptr, ptr %6, align 8, !tbaa !14
  %8 = getelementptr i8, ptr %7, i64 148
  %.val75 = load i32, ptr %8, align 4, !tbaa !16
  %9 = getelementptr i8, ptr %7, i64 152
  %.val76 = load i32, ptr %9, align 8, !tbaa !16
  %10 = add i32 %.val75, %.083
  %11 = add i32 %10, %.val76
  tail call void @Aig_ManCleanData(ptr noundef %7) #2
  %indvars.iv.next = add nuw nsw i64 %indvars.iv, 1
  %.val69 = load i32, ptr %4, align 4, !tbaa !15
  %12 = sext i32 %.val69 to i64
  %13 = icmp slt i64 %indvars.iv.next, %12
  br i1 %13, label %.lr.ph, label %.critedge, !llvm.loop !17

.critedge:                                        ; preds = %.lr.ph, %1
  %.0.lcssa = phi i32 [ 0, %1 ], [ %11, %.lr.ph ]
  %14 = tail call ptr @Aig_ManStart(i32 noundef %.0.lcssa) #2
  %.val7084 = load i32, ptr %4, align 4, !tbaa !15
  %15 = icmp sgt i32 %.val7084, 0
  br i1 %15, label %.lr.ph86, label %.critedge2.preheader

.lr.ph86:                                         ; preds = %.critedge
  %16 = getelementptr i8, ptr %14, i64 48
  %.val77.pre = load ptr, ptr %16, align 8, !tbaa !19
  br label %21

.critedge2.preheader:                             ; preds = %21, %.critedge
  %17 = getelementptr inbounds nuw i8, ptr %3, i64 16
  %18 = load ptr, ptr %17, align 8, !tbaa !31
  %19 = getelementptr i8, ptr %18, i64 4
  %.val7190 = load i32, ptr %19, align 4, !tbaa !15
  %20 = icmp sgt i32 %.val7190, 0
  br i1 %20, label %.lr.ph92, label %.critedge4.preheader

21:                                               ; preds = %.lr.ph86, %21
  %indvars.iv100 = phi i64 [ 0, %.lr.ph86 ], [ %indvars.iv.next101, %21 ]
  %.val64 = load ptr, ptr %2, align 8, !tbaa !12
  %22 = getelementptr inbounds nuw ptr, ptr %.val64, i64 %indvars.iv100
  %23 = load ptr, ptr %22, align 8, !tbaa !14
  %24 = getelementptr i8, ptr %23, i64 48
  %.val78 = load ptr, ptr %24, align 8, !tbaa !19
  %25 = getelementptr inbounds nuw i8, ptr %.val78, i64 40
  store ptr %.val77.pre, ptr %25, align 8, !tbaa !3
  %indvars.iv.next101 = add nuw nsw i64 %indvars.iv100, 1
  %.val70 = load i32, ptr %4, align 4, !tbaa !15
  %26 = sext i32 %.val70 to i64
  %27 = icmp slt i64 %indvars.iv.next101, %26
  br i1 %27, label %21, label %.critedge2.preheader, !llvm.loop !32

.critedge4.preheader:                             ; preds = %.critedge6, %.critedge2.preheader
  %28 = getelementptr inbounds nuw i8, ptr %3, i64 24
  %29 = load ptr, ptr %28, align 8, !tbaa !33
  %30 = getelementptr i8, ptr %29, i64 4
  %.val7396 = load i32, ptr %30, align 4, !tbaa !15
  %31 = icmp sgt i32 %.val7396, 0
  br i1 %31, label %.lr.ph98, label %.critedge8

.lr.ph92:                                         ; preds = %.critedge2.preheader, %.critedge6
  %indvars.iv106 = phi i64 [ %indvars.iv.next107, %.critedge6 ], [ 0, %.critedge2.preheader ]
  %32 = tail call ptr @Aig_ObjCreateCi(ptr noundef %14) #2
  %.val7287 = load i32, ptr %4, align 4, !tbaa !15
  %33 = icmp sgt i32 %.val7287, 0
  br i1 %33, label %.lr.ph89, label %.critedge6

.lr.ph89:                                         ; preds = %.lr.ph92, %.lr.ph89
  %indvars.iv103 = phi i64 [ %indvars.iv.next104, %.lr.ph89 ], [ 0, %.lr.ph92 ]
  %.val66 = load ptr, ptr %2, align 8, !tbaa !12
  %34 = getelementptr inbounds nuw ptr, ptr %.val66, i64 %indvars.iv103
  %35 = load ptr, ptr %34, align 8, !tbaa !14
  %36 = getelementptr i8, ptr %35, i64 16
  %.val79 = load ptr, ptr %36, align 8, !tbaa !31
  %37 = getelementptr i8, ptr %.val79, i64 8
  %.val79.val = load ptr, ptr %37, align 8, !tbaa !12
  %38 = getelementptr inbounds nuw ptr, ptr %.val79.val, i64 %indvars.iv106
  %39 = load ptr, ptr %38, align 8, !tbaa !14
  %40 = getelementptr inbounds nuw i8, ptr %39, i64 40
  store ptr %32, ptr %40, align 8, !tbaa !3
  %indvars.iv.next104 = add nuw nsw i64 %indvars.iv103, 1
  %.val72 = load i32, ptr %4, align 4, !tbaa !15
  %41 = sext i32 %.val72 to i64
  %42 = icmp slt i64 %indvars.iv.next104, %41
  br i1 %42, label %.lr.ph89, label %.critedge6, !llvm.loop !34

.critedge6:                                       ; preds = %.lr.ph89, %.lr.ph92
  %indvars.iv.next107 = add nuw nsw i64 %indvars.iv106, 1
  %43 = load ptr, ptr %17, align 8, !tbaa !31
  %44 = getelementptr i8, ptr %43, i64 4
  %.val71 = load i32, ptr %44, align 4, !tbaa !15
  %45 = sext i32 %.val71 to i64
  %46 = icmp slt i64 %indvars.iv.next107, %45
  br i1 %46, label %.lr.ph92, label %.critedge4.preheader, !llvm.loop !35

.lr.ph98:                                         ; preds = %.critedge4.preheader, %Aig_ObjChild0Copy.exit
  %indvars.iv112 = phi i64 [ %indvars.iv.next113, %Aig_ObjChild0Copy.exit ], [ 0, %.critedge4.preheader ]
  %47 = phi ptr [ %77, %Aig_ObjChild0Copy.exit ], [ %29, %.critedge4.preheader ]
  %48 = getelementptr i8, ptr %47, i64 8
  %.val67 = load ptr, ptr %48, align 8, !tbaa !12
  %49 = getelementptr inbounds nuw ptr, ptr %.val67, i64 %indvars.iv112
  %50 = load ptr, ptr %49, align 8, !tbaa !14
  %.val7493 = load i32, ptr %4, align 4, !tbaa !15
  %51 = icmp sgt i32 %.val7493, 0
  br i1 %51, label %.lr.ph95, label %.critedge10

.lr.ph95:                                         ; preds = %.lr.ph98, %.lr.ph95
  %indvars.iv109 = phi i64 [ %indvars.iv.next110, %.lr.ph95 ], [ 0, %.lr.ph98 ]
  %.val68 = load ptr, ptr %2, align 8, !tbaa !12
  %52 = getelementptr inbounds nuw ptr, ptr %.val68, i64 %indvars.iv109
  %53 = load ptr, ptr %52, align 8, !tbaa !14
  %54 = getelementptr i8, ptr %53, i64 24
  %.val80 = load ptr, ptr %54, align 8, !tbaa !33
  %55 = getelementptr i8, ptr %.val80, i64 8
  %.val80.val = load ptr, ptr %55, align 8, !tbaa !12
  %56 = getelementptr inbounds nuw ptr, ptr %.val80.val, i64 %indvars.iv112
  %57 = load ptr, ptr %56, align 8, !tbaa !14
  %58 = getelementptr i8, ptr %57, i64 8
  %.val = load ptr, ptr %58, align 8, !tbaa !6
  %59 = ptrtoint ptr %.val to i64
  %60 = and i64 %59, -2
  %61 = inttoptr i64 %60 to ptr
  tail call void @Dch_DeriveTotalAig_rec(ptr noundef %14, ptr noundef %61)
  %indvars.iv.next110 = add nuw nsw i64 %indvars.iv109, 1
  %.val74 = load i32, ptr %4, align 4, !tbaa !15
  %62 = sext i32 %.val74 to i64
  %63 = icmp slt i64 %indvars.iv.next110, %62
  br i1 %63, label %.lr.ph95, label %.critedge10, !llvm.loop !36

.critedge10:                                      ; preds = %.lr.ph95, %.lr.ph98
  %64 = getelementptr i8, ptr %50, i64 8
  %.val61 = load ptr, ptr %64, align 8, !tbaa !6
  %65 = ptrtoint ptr %.val61 to i64
  %66 = and i64 %65, -2
  %.not.i = icmp eq i64 %66, 0
  br i1 %.not.i, label %Aig_ObjChild0Copy.exit, label %67

67:                                               ; preds = %.critedge10
  %68 = inttoptr i64 %66 to ptr
  %69 = getelementptr inbounds nuw i8, ptr %68, i64 40
  %70 = load ptr, ptr %69, align 8, !tbaa !3
  %71 = and i64 %65, 1
  %72 = ptrtoint ptr %70 to i64
  %73 = xor i64 %71, %72
  %74 = inttoptr i64 %73 to ptr
  br label %Aig_ObjChild0Copy.exit

Aig_ObjChild0Copy.exit:                           ; preds = %.critedge10, %67
  %75 = phi ptr [ %74, %67 ], [ null, %.critedge10 ]
  %76 = tail call ptr @Aig_ObjCreateCo(ptr noundef %14, ptr noundef %75) #2
  %indvars.iv.next113 = add nuw nsw i64 %indvars.iv112, 1
  %77 = load ptr, ptr %28, align 8, !tbaa !33
  %78 = getelementptr i8, ptr %77, i64 4
  %.val73 = load i32, ptr %78, align 4, !tbaa !15
  %79 = sext i32 %.val73 to i64
  %80 = icmp slt i64 %indvars.iv.next113, %79
  br i1 %80, label %.lr.ph98, label %.critedge8, !llvm.loop !37

.critedge8:                                       ; preds = %Aig_ObjChild0Copy.exit, %.critedge4.preheader
  ret ptr %14
}